target datalayout = "e-m:e-p270:32:32-p271:32:32-p272:64:64-i64:64-i128:128-f80:128-n8:16:32:64-S128"
target triple = "x86_64-pc-linux-gnu"

%struct._object = type { %union.anon, ptr }
%union.anon = type { i64 }
%struct.cpu_flags = type { i8, i8, i8, i8, i8, i8, i8, i8, i8 }
%struct.Blake2State = type { ptr, ptr, %struct.cpu_flags }
%struct.PyModuleObject = type { %struct._object, ptr, ptr, ptr, ptr, ptr }

; Function Attrs: inlinehint nounwind uwtable
define internal ptr @_PyModule_GetState(ptr noundef %0) #3 {
  %2 = alloca ptr, align 8
  store ptr %0, ptr %2, align 8, !tbaa !24
  %3 = load ptr, ptr %2, align 8, !tbaa !24
  %4 = getelementptr inbounds nuw %struct.PyModuleObject, ptr %3, i32 0, i32 3
  %5 = load ptr, ptr %4, align 8, !tbaa !44
  ret ptr %5
}

; Function Attrs: inlinehint nounwind uwtable
define internal ptr @blake2_get_state(ptr noundef %0) #3 {
  %2 = alloca ptr, align 8
  %3 = alloca ptr, align 8
  store ptr %0, ptr %2, align 8, !tbaa !24
  call void @llvm.lifetime.start.p0(i64 8, ptr %3) #8
  %4 = load ptr, ptr %2, align 8, !tbaa !24
  %5 = call ptr @_PyModule_GetState(ptr noundef %4)
  store ptr %5, ptr %3, align 8, !tbaa !3
  %6 = load ptr, ptr %3, align 8, !tbaa !3
  call void @llvm.lifetime.end.p0(i64 8, ptr %3) #8
  ret ptr %6
}

; Function Attrs: nounwind uwtable
define internal i32 @_blake2_traverse(ptr noundef %0, ptr noundef %1, ptr noundef %2) #0 {
  %4 = alloca i32, align 4
  %5 = alloca ptr, align 8
  %6 = alloca ptr, align 8
  %7 = alloca ptr, align 8
  %8 = alloca ptr, align 8
  %9 = alloca i32, align 4
  %10 = alloca i32, align 4
  %11 = alloca i32, align 4
  store ptr %0, ptr %5, align 8, !tbaa !24
  store ptr %1, ptr %6, align 8, !tbaa !3
  store ptr %2, ptr %7, align 8, !tbaa !3
  call void @llvm.lifetime.start.p0(i64 8, ptr %8) #8
  %12 = load ptr, ptr %5, align 8, !tbaa !24
  %13 = call ptr @blake2_get_state(ptr noundef %12)
  store ptr %13, ptr %8, align 8, !tbaa !3
  br label %14

14:                                               ; preds = %3
  %15 = load ptr, ptr %8, align 8, !tbaa !3
  %16 = getelementptr inbounds nuw %struct.Blake2State, ptr %15, i32 0, i32 0
  %17 = load ptr, ptr %16, align 8, !tbaa !26
  %18 = icmp ne ptr %17, null
  br i1 %18, label %19, label %34

19:                                               ; preds = %14
  call void @llvm.lifetime.start.p0(i64 4, ptr %9) #8
  %20 = load ptr, ptr %6, align 8, !tbaa !3
  %21 = load ptr, ptr %8, align 8, !tbaa !3
  %22 = getelementptr inbounds nuw %struct.Blake2State, ptr %21, i32 0, i32 0
  %23 = load ptr, ptr %22, align 8, !tbaa !26
  %24 = load ptr, ptr %7, align 8, !tbaa !3
  %25 = call i32 %20(ptr noundef %23, ptr noundef %24)
  store i32 %25, ptr %9, align 4, !tbaa !12
  %26 = load i32, ptr %9, align 4, !tbaa !12
  %27 = icmp ne i32 %26, 0
  br i1 %27, label %28, label %30

28:                                               ; preds = %19
  %29 = load i32, ptr %9, align 4, !tbaa !12
  store i32 %29, ptr %4, align 4
  store i32 1, ptr %10, align 4
  br label %31

30:                                               ; preds = %19
  store i32 0, ptr %10, align 4
  br label %31

31:                                               ; preds = %30, %28
  call void @llvm.lifetime.end.p0(i64 4, ptr %9) #8
  %32 = load i32, ptr %10, align 4
  switch i32 %32, label %60 [
    i32 0, label %33
  ]

33:                                               ; preds = %31
  br label %34

34:                                               ; preds = %33, %14
  br label %35

35:                                               ; preds = %34
  br label %36

36:                                               ; preds = %35
  br label %37

37:                                               ; preds = %36
  %38 = load ptr, ptr %8, align 8, !tbaa !3
  %39 = getelementptr inbounds nuw %struct.Blake2State, ptr %38, i32 0, i32 1
  %40 = load ptr, ptr %39, align 8, !tbaa !29
  %41 = icmp ne ptr %40, null
  br i1 %41, label %42, label %57

42:                                               ; preds = %37
  call void @llvm.lifetime.start.p0(i64 4, ptr %11) #8
  %43 = load ptr, ptr %6, align 8, !tbaa !3
  %44 = load ptr, ptr %8, align 8, !tbaa !3
  %45 = getelementptr inbounds nuw %struct.Blake2State, ptr %44, i32 0, i32 1
  %46 = load ptr, ptr %45, align 8, !tbaa !29
  %47 = load ptr, ptr %7, align 8, !tbaa !3
  %48 = call i32 %43(ptr noundef %46, ptr noundef %47)
  store i32 %48, ptr %11, align 4, !tbaa !12
  %49 = load i32, ptr %11, align 4, !tbaa !12
  %50 = icmp ne i32 %49, 0
  br i1 %50, label %51, label %53

51:                                               ; preds = %42
  %52 = load i32, ptr %11, align 4, !tbaa !12
  store i32 %52, ptr %4, align 4
  store i32 1, ptr %10, align 4
  br label %54

53:                                               ; preds = %42
  store i32 0, ptr %10, align 4
  br label %54

54:                                               ; preds = %53, %51
  call void @llvm.lifetime.end.p0(i64 4, ptr %11) #8
  %55 = load i32, ptr %10, align 4
  switch i32 %55, label %60 [
    i32 0, label %56
  ]

56:                                               ; preds = %54
  br label %57

57:                                               ; preds = %56, %37
  br label %58

58:                                               ; preds = %57
  br label %59

59:                                               ; preds = %58
  store i32 0, ptr %4, align 4
  store i32 1, ptr %10, align 4
  br label %60

60:                                               ; preds = %59, %54, %31
  call void @llvm.lifetime.end.p0(i64 8, ptr %8) #8
  %61 = load i32, ptr %4, align 4
  ret i32 %61
}